target datalayout = "e-m:e-p270:32:32-p271:32:32-p272:64:64-i64:64-i128:128-f80:128-n8:16:32:64-S128"
target triple = "x86_64-pc-linux-gnu"

%struct._asn1_ctx_t = type { i32, i32, i8, ptr, ptr, ptr, ptr, ptr, %struct.anon.0, %struct.anon.3, %struct.anon.4, ptr }
%struct.anon.0 = type { i32, i8, i8, i8, ptr, ptr, i32, i32, ptr, ptr, ptr, %union.anon }
%union.anon = type { %struct.anon.1 }
%struct.anon.1 = type { ptr }
%struct.anon.3 = type { ptr, ptr, ptr }
%struct.anon.4 = type { i32, i8, ptr, i32, i32, ptr, ptr, ptr, %union.anon.5 }
%union.anon.5 = type { %struct.anon.6 }
%struct.anon.6 = type { ptr }

@hf_per_octet_string_length = internal global i32 0, align 4
@.str.15 = private unnamed_addr constant [21 x i8] c"Unaligned UTF8String\00", align 1

; Function Attrs: null_pointer_is_valid sspstrong uwtable
define i32 @dissect_per_UTF8String(ptr noundef %0, i32 noundef %1, ptr noundef %2, ptr noundef %3, i32 noundef %4, i32 noundef %5, i32 noundef %6, i1 noundef zeroext %7) #0 {
  %9 = alloca ptr, align 8
  %10 = alloca i32, align 4
  %11 = alloca ptr, align 8
  %12 = alloca ptr, align 8
  %13 = alloca i32, align 4
  %14 = alloca i32, align 4
  %15 = alloca i32, align 4
  %16 = alloca i8, align 1
  %17 = alloca ptr, align 8
  %18 = alloca i32, align 4
  store ptr %0, ptr %9, align 8
  store i32 %1, ptr %10, align 4
  store ptr %2, ptr %11, align 8
  store ptr %3, ptr %12, align 8
  store i32 %4, ptr %13, align 4
  store i32 %5, ptr %14, align 4
  store i32 %6, ptr %15, align 4
  %19 = zext i1 %7 to i8
  store i8 %19, ptr %16, align 1
  call void @llvm.lifetime.start.p0(i64 8, ptr %17) #11
  call void @llvm.lifetime.start.p0(i64 4, ptr %18) #11
  %20 = load ptr, ptr %9, align 8
  %21 = load i32, ptr %10, align 4
  %22 = load ptr, ptr %11, align 8
  %23 = load ptr, ptr %12, align 8
  %24 = load i32, ptr @hf_per_octet_string_length, align 4
  %25 = call i32 @dissect_per_length_determinant(ptr noundef %20, i32 noundef %21, ptr noundef %22, ptr noundef %23, i32 noundef %24, ptr noundef %18, ptr noundef null)
  store i32 %25, ptr %10, align 4
  %26 = load i32, ptr %18, align 4
  %27 = icmp ne i32 %26, 0
  br i1 %27, label %28, label %62

28:                                               ; preds = %8
  %29 = load ptr, ptr %11, align 8
  %30 = getelementptr inbounds nuw %struct._asn1_ctx_t, ptr %29, i32 0, i32 2
  %31 = load i8, ptr %30, align 8, !range !6, !noundef !7
  %32 = trunc i8 %31 to i1
  br i1 %32, label %33, label %42

33:                                               ; preds = %28
  %34 = load i32, ptr %10, align 4
  %35 = and i32 %34, 7
  %36 = icmp ne i32 %35, 0
  br i1 %36, label %37, label %41

37:                                               ; preds = %33
  %38 = load i32, ptr %10, align 4
  %39 = and i32 %38, -8
  %40 = add i32 %39, 8
  store i32 %40, ptr %10, align 4
  br label %41

41:                                               ; preds = %37, %33
  br label %42

42:                                               ; preds = %41, %28
  %43 = load ptr, ptr %9, align 8
  %44 = load i32, ptr %10, align 4
  %45 = load i32, ptr %18, align 4
  %46 = mul i32 %45, 8
  %47 = call ptr @tvb_new_octet_aligned(ptr noundef %43, i32 noundef %44, i32 noundef %46)
  store ptr %47, ptr %17, align 8
  %48 = load i32, ptr %10, align 4
  %49 = and i32 %48, 7
  %50 = icmp ne i32 %49, 0
  br i1 %50, label %51, label %56

51:                                               ; preds = %42
  %52 = load ptr, ptr %11, align 8
  %53 = getelementptr inbounds nuw %struct._asn1_ctx_t, ptr %52, i32 0, i32 3
  %54 = load ptr, ptr %53, align 8
  %55 = load ptr, ptr %17, align 8
  call void @add_new_data_source(ptr noundef %54, ptr noundef %55, ptr noundef @.str.15)
  br label %56

56:                                               ; preds = %51, %42
  %57 = load ptr, ptr %12, align 8
  %58 = load i32, ptr %13, align 4
  %59 = load ptr, ptr %17, align 8
  %60 = load i32, ptr %18, align 4
  %61 = call ptr @proto_tree_add_item(ptr noundef %57, i32 noundef %58, ptr noundef %59, i32 noundef 0, i32 noundef %60, i32 noundef 2)
  br label %71

62:                                               ; preds = %8
  %63 = load ptr, ptr %12, align 8
  %64 = load i32, ptr %13, align 4
  %65 = load ptr, ptr %9, align 8
  %66 = load i32, ptr %10, align 4
  %67 = sub i32 %66, 1
  %68 = lshr i32 %67, 3
  %69 = load i32, ptr %18, align 4
  %70 = call ptr @proto_tree_add_item(ptr noundef %63, i32 noundef %64, ptr noundef %65, i32 noundef %68, i32 noundef %69, i32 noundef 2)
  br label %71

71:                                               ; preds = %62, %56
  %72 = load i32, ptr %18, align 4
  %73 = shl i32 %72, 3
  %74 = load i32, ptr %10, align 4
  %75 = add i32 %74, %73
  store i32 %75, ptr %10, align 4
  %76 = load i32, ptr %10, align 4
  call void @llvm.lifetime.end.p0(i64 4, ptr %18) #11
  call void @llvm.lifetime.end.p0(i64 8, ptr %17) #11
  ret i32 %76
}