; Function Attrs: null_pointer_is_valid sspstrong uwtable
define i32 @dissect_per_UTF8String(ptr noundef %0, i32 noundef %1, ptr noundef captures(none) %2, ptr noundef %3, i32 noundef %4, i32 noundef %5, i32 noundef %6, i1 noundef zeroext %7) local_unnamed_addr #0 {
  %9 = alloca i32, align 4
  call void @llvm.lifetime.start.p0(i64 4, ptr nonnull %9) #13
  %10 = load i32, ptr @hf_per_octet_string_length, align 4
  %11 = call i32 @dissect_per_length_determinant(ptr noundef %0, i32 noundef %1, ptr noundef %2, ptr noundef %3, i32 noundef %10, ptr noundef nonnull %9, ptr noundef null)
  %12 = load i32, ptr %9, align 4
  %.not = icmp eq i32 %12, 0
  br i1 %.not, label %29, label %13

13:                                               ; preds = %8
  %14 = getelementptr inbounds nuw i8, ptr %2, i64 8
  %15 = load i8, ptr %14, align 8, !range !6, !noundef !7
  %16 = trunc nuw i8 %15 to i1
  %17 = and i32 %11, 7
  %.not21 = icmp ne i32 %17, 0
  %or.cond.not = select i1 %16, i1 %.not21, i1 false
  %18 = and i32 %11, -8
  %19 = add i32 %18, 8
  %.0 = select i1 %or.cond.not, i32 %19, i32 %11
  %20 = shl i32 %12, 3
  %21 = call ptr @tvb_new_octet_aligned(ptr noundef %0, i32 noundef %.0, i32 noundef %20)
  %22 = and i32 %.0, 7
  %.not22 = icmp eq i32 %22, 0
  br i1 %.not22, label %26, label %23

23:                                               ; preds = %13
  %24 = getelementptr inbounds nuw i8, ptr %2, i64 16
  %25 = load ptr, ptr %24, align 8
  call void @add_new_data_source(ptr noundef %25, ptr noundef %21, ptr noundef nonnull @.str.15)
  br label %26

26:                                               ; preds = %23, %13
  %27 = load i32, ptr %9, align 4
  %28 = call ptr @proto_tree_add_item(ptr noundef %3, i32 noundef %4, ptr noundef %21, i32 noundef 0, i32 noundef %27, i32 noundef 2)
  br label %33

29:                                               ; preds = %8
  %30 = add i32 %11, -1
  %31 = lshr i32 %30, 3
  %32 = call ptr @proto_tree_add_item(ptr noundef %3, i32 noundef %4, ptr noundef %0, i32 noundef %31, i32 noundef 0, i32 noundef 2)
  br label %33

33:                                               ; preds = %29, %26
  %.1 = phi i32 [ %.0, %26 ], [ %11, %29 ]
  %34 = load i32, ptr %9, align 4
  %35 = shl i32 %34, 3
  %36 = add i32 %35, %.1
  call void @llvm.lifetime.end.p0(i64 4, ptr nonnull %9) #13
  ret i32 %36
}